target datalayout = "e-m:e-p270:32:32-p271:32:32-p272:64:64-i64:64-i128:128-f80:128-n8:16:32:64-S128"
target triple = "x86_64-pc-linux-gnu"

%struct._object = type { %union.anon, ptr }
%union.anon = type { i64 }
%struct.Blake2Object = type { %struct._object, %union.anon.0, i32, i8, %struct.PyMutex }
%union.anon.0 = type { ptr }
%struct.PyMutex = type { i8 }

; Function Attrs: inlinehint nounwind uwtable
define internal i32 @_Py_atomic_compare_exchange_uint8(ptr noundef %0, ptr noundef %1, i8 noundef zeroext %2) #3 {
  %4 = alloca ptr, align 8
  %5 = alloca ptr, align 8
  %6 = alloca i8, align 1
  %7 = alloca i8, align 1
  %8 = alloca i8, align 1
  store ptr %0, ptr %4, align 8, !tbaa !70
  store ptr %1, ptr %5, align 8, !tbaa !70
  store i8 %2, ptr %6, align 1, !tbaa !43
  %9 = load ptr, ptr %4, align 8, !tbaa !70
  %10 = load ptr, ptr %5, align 8, !tbaa !70
  %11 = load i8, ptr %6, align 1, !tbaa !43
  store i8 %11, ptr %7, align 1, !tbaa !43
  %12 = load i8, ptr %10, align 1
  %13 = load i8, ptr %7, align 1
  %14 = cmpxchg ptr %9, i8 %12, i8 %13 seq_cst seq_cst, align 1
  %15 = extractvalue { i8, i1 } %14, 0
  %16 = extractvalue { i8, i1 } %14, 1
  br i1 %16, label %18, label %17

17:                                               ; preds = %3
  store i8 %15, ptr %10, align 1
  br label %18

18:                                               ; preds = %17, %3
  %19 = zext i1 %16 to i8
  store i8 %19, ptr %8, align 1, !tbaa !71
  %20 = load i8, ptr %8, align 1, !tbaa !71, !range !10, !noundef !11
  %21 = trunc i8 %20 to i1
  %22 = zext i1 %21 to i32
  ret i32 %22
}

; Function Attrs: inlinehint nounwind uwtable
define internal void @_PyMutex_Unlock(ptr noundef %0) #3 {
  %2 = alloca ptr, align 8
  %3 = alloca i8, align 1
  store ptr %0, ptr %2, align 8, !tbaa !68
  call void @llvm.lifetime.start.p0(i64 1, ptr %3) #8
  store i8 1, ptr %3, align 1, !tbaa !43
  %4 = load ptr, ptr %2, align 8, !tbaa !68
  %5 = getelementptr inbounds nuw %struct.PyMutex, ptr %4, i32 0, i32 0
  %6 = call i32 @_Py_atomic_compare_exchange_uint8(ptr noundef %5, ptr noundef %3, i8 noundef zeroext 0)
  %7 = icmp ne i32 %6, 0
  br i1 %7, label %10, label %8

8:                                                ; preds = %1
  %9 = load ptr, ptr %2, align 8, !tbaa !68
  call void @PyMutex_Unlock(ptr noundef %9)
  br label %10

10:                                               ; preds = %8, %1
  call void @llvm.lifetime.end.p0(i64 1, ptr %3) #8
  ret void
}

; Function Attrs: inlinehint nounwind uwtable
define internal void @_PyMutex_Lock(ptr noundef %0) #3 {
  %2 = alloca ptr, align 8
  %3 = alloca i8, align 1
  store ptr %0, ptr %2, align 8, !tbaa !68
  call void @llvm.lifetime.start.p0(i64 1, ptr %3) #8
  store i8 0, ptr %3, align 1, !tbaa !43
  %4 = load ptr, ptr %2, align 8, !tbaa !68
  %5 = getelementptr inbounds nuw %struct.PyMutex, ptr %4, i32 0, i32 0
  %6 = call i32 @_Py_atomic_compare_exchange_uint8(ptr noundef %5, ptr noundef %3, i8 noundef zeroext 1)
  %7 = icmp ne i32 %6, 0
  br i1 %7, label %10, label %8

8:                                                ; preds = %1
  %9 = load ptr, ptr %2, align 8, !tbaa !68
  call void @PyMutex_Lock(ptr noundef %9)
  br label %10

10:                                               ; preds = %8, %1
  call void @llvm.lifetime.end.p0(i64 1, ptr %3) #8
  ret void
}

; Function Attrs: nounwind uwtable
define internal ptr @new_Blake2Object(ptr noundef %0) #0 {
  %2 = alloca ptr, align 8
  %3 = alloca ptr, align 8
  %4 = alloca ptr, align 8
  %5 = alloca i32, align 4
  %6 = alloca %struct.PyMutex, align 1
  store ptr %0, ptr %3, align 8, !tbaa !32
  call void @llvm.lifetime.start.p0(i64 8, ptr %4) #8
  %7 = load ptr, ptr %3, align 8, !tbaa !32
  %8 = call ptr @_PyObject_GC_New(ptr noundef %7)
  store ptr %8, ptr %4, align 8, !tbaa !3
  %9 = load ptr, ptr %4, align 8, !tbaa !3
  %10 = icmp eq ptr %9, null
  br i1 %10, label %11, label %12

11:                                               ; preds = %1
  store ptr null, ptr %2, align 8
  store i32 1, ptr %5, align 4
  br label %23

12:                                               ; preds = %1
  br label %13

13:                                               ; preds = %12
  %14 = load ptr, ptr %4, align 8, !tbaa !3
  %15 = getelementptr inbounds nuw %struct.Blake2Object, ptr %14, i32 0, i32 4
  %16 = getelementptr inbounds nuw %struct.PyMutex, ptr %6, i32 0, i32 0
  store i8 0, ptr %16, align 1, !tbaa !66
  call void @llvm.memcpy.p0.p0.i64(ptr align 1 %15, ptr align 1 %6, i64 1, i1 false), !tbaa.struct !67
  %17 = load ptr, ptr %4, align 8, !tbaa !3
  %18 = getelementptr inbounds nuw %struct.Blake2Object, ptr %17, i32 0, i32 3
  store i8 0, ptr %18, align 4, !tbaa !61
  br label %19

19:                                               ; preds = %13
  br label %20

20:                                               ; preds = %19
  %21 = load ptr, ptr %4, align 8, !tbaa !3
  call void @PyObject_GC_Track(ptr noundef %21)
  %22 = load ptr, ptr %4, align 8, !tbaa !3
  store ptr %22, ptr %2, align 8
  store i32 1, ptr %5, align 4
  br label %23

23:                                               ; preds = %20, %11
  call void @llvm.lifetime.end.p0(i64 8, ptr %4) #8
  %24 = load ptr, ptr %2, align 8
  ret ptr %24
}

; Function Attrs: inlinehint nounwind uwtable
define internal ptr @_Py_TYPE(ptr noundef %0) #3 {
  %2 = alloca ptr, align 8
  store ptr %0, ptr %2, align 8, !tbaa !24
  %3 = load ptr, ptr %2, align 8, !tbaa !24
  %4 = getelementptr inbounds nuw %struct._object, ptr %3, i32 0, i32 1
  %5 = load ptr, ptr %4, align 8, !tbaa !59
  ret ptr %5
}

; Function Attrs: nounwind uwtable
define internal ptr @_blake2_blake2b_copy_impl(ptr noundef %0) #0 {
  %2 = alloca ptr, align 8
  %3 = alloca ptr, align 8
  %4 = alloca ptr, align 8
  %5 = alloca i32, align 4
  store ptr %0, ptr %3, align 8, !tbaa !3
  call void @llvm.lifetime.start.p0(i64 8, ptr %4) #8
  %6 = load ptr, ptr %3, align 8, !tbaa !3
  %7 = call ptr @_Py_TYPE(ptr noundef %6)
  %8 = call ptr @new_Blake2Object(ptr noundef %7)
  store ptr %8, ptr %4, align 8, !tbaa !3
  %9 = icmp eq ptr %8, null
  br i1 %9, label %10, label %11

10:                                               ; preds = %1
  store ptr null, ptr %2, align 8
  store i32 1, ptr %5, align 4
  br label %67

11:                                               ; preds = %1
  %12 = load ptr, ptr %3, align 8, !tbaa !3
  %13 = getelementptr inbounds nuw %struct.Blake2Object, ptr %12, i32 0, i32 3
  %14 = load i8, ptr %13, align 4, !tbaa !61, !range !10, !noundef !11
  %15 = trunc i8 %14 to i1
  br i1 %15, label %16, label %19

16:                                               ; preds = %11
  %17 = load ptr, ptr %3, align 8, !tbaa !3
  %18 = getelementptr inbounds nuw %struct.Blake2Object, ptr %17, i32 0, i32 4
  call void @_PyMutex_Lock(ptr noundef %18)
  br label %19

19:                                               ; preds = %16, %11
  %20 = load ptr, ptr %3, align 8, !tbaa !3
  %21 = getelementptr inbounds nuw %struct.Blake2Object, ptr %20, i32 0, i32 2
  %22 = load i32, ptr %21, align 8, !tbaa !47
  switch i32 %22, label %51 [
    i32 3, label %23
    i32 2, label %30
    i32 1, label %37
    i32 0, label %44
  ]

23:                                               ; preds = %19
  %24 = load ptr, ptr %3, align 8, !tbaa !3
  %25 = getelementptr inbounds nuw %struct.Blake2Object, ptr %24, i32 0, i32 1
  %26 = load ptr, ptr %25, align 8, !tbaa !43
  %27 = call ptr @python_hashlib_Hacl_Hash_Blake2b_Simd256_copy(ptr noundef %26)
  %28 = load ptr, ptr %4, align 8, !tbaa !3
  %29 = getelementptr inbounds nuw %struct.Blake2Object, ptr %28, i32 0, i32 1
  store ptr %27, ptr %29, align 8, !tbaa !43
  br label %52

30:                                               ; preds = %19
  %31 = load ptr, ptr %3, align 8, !tbaa !3
  %32 = getelementptr inbounds nuw %struct.Blake2Object, ptr %31, i32 0, i32 1
  %33 = load ptr, ptr %32, align 8, !tbaa !43
  %34 = call ptr @python_hashlib_Hacl_Hash_Blake2s_Simd128_copy(ptr noundef %33)
  %35 = load ptr, ptr %4, align 8, !tbaa !3
  %36 = getelementptr inbounds nuw %struct.Blake2Object, ptr %35, i32 0, i32 1
  store ptr %34, ptr %36, align 8, !tbaa !43
  br label %52

37:                                               ; preds = %19
  %38 = load ptr, ptr %3, align 8, !tbaa !3
  %39 = getelementptr inbounds nuw %struct.Blake2Object, ptr %38, i32 0, i32 1
  %40 = load ptr, ptr %39, align 8, !tbaa !43
  %41 = call ptr @python_hashlib_Hacl_Hash_Blake2b_copy(ptr noundef %40)
  %42 = load ptr, ptr %4, align 8, !tbaa !3
  %43 = getelementptr inbounds nuw %struct.Blake2Object, ptr %42, i32 0, i32 1
  store ptr %41, ptr %43, align 8, !tbaa !43
  br label %52

44:                                               ; preds = %19
  %45 = load ptr, ptr %3, align 8, !tbaa !3
  %46 = getelementptr inbounds nuw %struct.Blake2Object, ptr %45, i32 0, i32 1
  %47 = load ptr, ptr %46, align 8, !tbaa !43
  %48 = call ptr @python_hashlib_Hacl_Hash_Blake2s_copy(ptr noundef %47)
  %49 = load ptr, ptr %4, align 8, !tbaa !3
  %50 = getelementptr inbounds nuw %struct.Blake2Object, ptr %49, i32 0, i32 1
  store ptr %48, ptr %50, align 8, !tbaa !43
  br label %52

51:                                               ; preds = %19
  unreachable

52:                                               ; preds = %44, %37, %30, %23
  %53 = load ptr, ptr %3, align 8, !tbaa !3
  %54 = getelementptr inbounds nuw %struct.Blake2Object, ptr %53, i32 0, i32 2
  %55 = load i32, ptr %54, align 8, !tbaa !47
  %56 = load ptr, ptr %4, align 8, !tbaa !3
  %57 = getelementptr inbounds nuw %struct.Blake2Object, ptr %56, i32 0, i32 2
  store i32 %55, ptr %57, align 8, !tbaa !47
  %58 = load ptr, ptr %3, align 8, !tbaa !3
  %59 = getelementptr inbounds nuw %struct.Blake2Object, ptr %58, i32 0, i32 3
  %60 = load i8, ptr %59, align 4, !tbaa !61, !range !10, !noundef !11
  %61 = trunc i8 %60 to i1
  br i1 %61, label %62, label %65

62:                                               ; preds = %52
  %63 = load ptr, ptr %3, align 8, !tbaa !3
  %64 = getelementptr inbounds nuw %struct.Blake2Object, ptr %63, i32 0, i32 4
  call void @_PyMutex_Unlock(ptr noundef %64)
  br label %65

65:                                               ; preds = %62, %52
  %66 = load ptr, ptr %4, align 8, !tbaa !3
  store ptr %66, ptr %2, align 8
  store i32 1, ptr %5, align 4
  br label %67

67:                                               ; preds = %65, %10
  call void @llvm.lifetime.end.p0(i64 8, ptr %4) #8
  %68 = load ptr, ptr %2, align 8
  ret ptr %68
}

; Function Attrs: nounwind uwtable
define internal ptr @_blake2_blake2b_copy(ptr noundef %0, ptr noundef %1) #0 {
  %3 = alloca ptr, align 8
  %4 = alloca ptr, align 8
  store ptr %0, ptr %3, align 8, !tbaa !24
  store ptr %1, ptr %4, align 8, !tbaa !24
  %5 = load ptr, ptr %3, align 8, !tbaa !24
  %6 = call ptr @_blake2_blake2b_copy_impl(ptr noundef %5)
  ret ptr %6
}