; Function Attrs: nounwind uwtable
define internal ptr @_blake2_blake2b_copy(ptr noundef %0, ptr readnone captures(none) %1) #2 {
  %3 = getelementptr i8, ptr %0, i64 8
  %.val.i = load ptr, ptr %3, align 8, !tbaa !45
  %4 = tail call ptr @_PyObject_GC_New(ptr noundef %.val.i) #9
  %5 = icmp eq ptr %4, null
  br i1 %5, label %_blake2_blake2b_copy_impl.exit, label %6

6:                                                ; preds = %2
  %7 = getelementptr inbounds nuw i8, ptr %4, i64 29
  store i8 0, ptr %7, align 1, !tbaa !31
  %8 = getelementptr inbounds nuw i8, ptr %4, i64 28
  store i8 0, ptr %8, align 4, !tbaa !59
  tail call void @PyObject_GC_Track(ptr noundef nonnull %4) #9
  %9 = getelementptr inbounds nuw i8, ptr %0, i64 28
  %10 = load i8, ptr %9, align 4, !tbaa !59, !range !8, !noundef !9
  %11 = trunc nuw i8 %10 to i1
  br i1 %11, label %12, label %_PyMutex_Lock.exit.i

12:                                               ; preds = %6
  %13 = getelementptr inbounds nuw i8, ptr %0, i64 29
  %14 = cmpxchg ptr %13, i8 0, i8 1 seq_cst seq_cst, align 1
  %15 = extractvalue { i8, i1 } %14, 1
  br i1 %15, label %_PyMutex_Lock.exit.i, label %16

16:                                               ; preds = %12
  tail call void @PyMutex_Lock(ptr noundef nonnull %13) #9
  br label %_PyMutex_Lock.exit.i

_PyMutex_Lock.exit.i:                             ; preds = %16, %12, %6
  %17 = getelementptr inbounds nuw i8, ptr %0, i64 24
  %18 = load i32, ptr %17, align 8, !tbaa !42
  %19 = getelementptr inbounds nuw i8, ptr %0, i64 16
  %20 = load ptr, ptr %19, align 8, !tbaa !31
  %21 = getelementptr inbounds nuw i8, ptr %4, i64 16
  switch i32 %18, label %30 [
    i32 3, label %22
    i32 2, label %24
    i32 1, label %26
    i32 0, label %28
  ]

22:                                               ; preds = %_PyMutex_Lock.exit.i
  %23 = tail call ptr @python_hashlib_Hacl_Hash_Blake2b_Simd256_copy(ptr noundef %20) #9
  br label %31

24:                                               ; preds = %_PyMutex_Lock.exit.i
  %25 = tail call ptr @python_hashlib_Hacl_Hash_Blake2s_Simd128_copy(ptr noundef %20) #9
  br label %31

26:                                               ; preds = %_PyMutex_Lock.exit.i
  %27 = tail call ptr @python_hashlib_Hacl_Hash_Blake2b_copy(ptr noundef %20) #9
  br label %31

28:                                               ; preds = %_PyMutex_Lock.exit.i
  %29 = tail call ptr @python_hashlib_Hacl_Hash_Blake2s_copy(ptr noundef %20) #9
  br label %31

30:                                               ; preds = %_PyMutex_Lock.exit.i
  unreachable

31:                                               ; preds = %28, %26, %24, %22
  %.sink.i = phi ptr [ %29, %28 ], [ %27, %26 ], [ %25, %24 ], [ %23, %22 ]
  store ptr %.sink.i, ptr %21, align 8, !tbaa !31
  %32 = load i32, ptr %17, align 8, !tbaa !42
  %33 = getelementptr inbounds nuw i8, ptr %4, i64 24
  store i32 %32, ptr %33, align 8, !tbaa !42
  %34 = load i8, ptr %9, align 4, !tbaa !59, !range !8, !noundef !9
  %35 = trunc nuw i8 %34 to i1
  br i1 %35, label %36, label %_blake2_blake2b_copy_impl.exit

36:                                               ; preds = %31
  %37 = getelementptr inbounds nuw i8, ptr %0, i64 29
  %38 = cmpxchg ptr %37, i8 1, i8 0 seq_cst seq_cst, align 1
  %39 = extractvalue { i8, i1 } %38, 1
  br i1 %39, label %_blake2_blake2b_copy_impl.exit, label %40

40:                                               ; preds = %36
  tail call void @PyMutex_Unlock(ptr noundef nonnull %37) #9
  br label %_blake2_blake2b_copy_impl.exit

_blake2_blake2b_copy_impl.exit:                   ; preds = %2, %31, %36, %40
  ret ptr %4
}